target datalayout = "e-m:e-p270:32:32-p271:32:32-p272:64:64-i64:64-i128:128-f80:128-n8:16:32:64-S128"
target triple = "x86_64-pc-linux-gnu"

%"class.ZXing::QRCode::Version" = type { i32, %"class.std::vector", %"struct.std::array", i32, i32 }
%"class.std::vector" = type { %"struct.std::_Vector_base" }
%"struct.std::_Vector_base" = type { %"struct.std::_Vector_base<int, std::allocator<int>>::_Vector_impl" }
%"struct.std::_Vector_base<int, std::allocator<int>>::_Vector_impl" = type { %"struct.std::_Vector_base<int, std::allocator<int>>::_Vector_impl_data" }
%"struct.std::_Vector_base<int, std::allocator<int>>::_Vector_impl_data" = type { ptr, ptr, ptr }
%"struct.std::array" = type { [4 x %"struct.ZXing::QRCode::ECBlocks"] }
%"struct.ZXing::QRCode::ECBlocks" = type { i32, %"struct.std::array.3" }
%"struct.std::array.3" = type { [2 x %"struct.ZXing::QRCode::ECB"] }
%"struct.ZXing::QRCode::ECB" = type { i32, i32 }

; Function Attrs: mustprogress nounwind uwtable
define linkonce_odr noundef i32 @_ZNK5ZXing6QRCode7Version4typeEv(ptr noundef nonnull align 8 dereferenceable(120) %0) #3 comdat align 2 {
  %2 = alloca ptr, align 8
  store ptr %0, ptr %2, align 8, !tbaa !33
  %3 = load ptr, ptr %2, align 8
  %4 = getelementptr inbounds nuw %"class.ZXing::QRCode::Version", ptr %3, i32 0, i32 4
  %5 = load i32, ptr %4, align 4, !tbaa !66
  ret i32 %5
}

; Function Attrs: mustprogress nounwind uwtable
define linkonce_odr noundef zeroext i1 @_ZNK5ZXing6QRCode7Version6isRMQREv(ptr noundef nonnull align 8 dereferenceable(120) %0) #3 comdat align 2 {
  %2 = alloca ptr, align 8
  store ptr %0, ptr %2, align 8, !tbaa !33
  %3 = load ptr, ptr %2, align 8
  %4 = call noundef i32 @_ZNK5ZXing6QRCode7Version4typeEv(ptr noundef nonnull align 8 dereferenceable(120) %3)
  %5 = icmp eq i32 %4, 3
  ret i1 %5
}

; Function Attrs: mustprogress nounwind uwtable
define linkonce_odr noundef i32 @_ZNK5ZXing6QRCode7Version13versionNumberEv(ptr noundef nonnull align 8 dereferenceable(120) %0) #3 comdat align 2 {
  %2 = alloca ptr, align 8
  store ptr %0, ptr %2, align 8, !tbaa !33
  %3 = load ptr, ptr %2, align 8
  %4 = getelementptr inbounds nuw %"class.ZXing::QRCode::Version", ptr %3, i32 0, i32 0
  %5 = load i32, ptr %4, align 8, !tbaa !36
  ret i32 %5
}

; Function Attrs: mustprogress uwtable
define linkonce_odr noundef zeroext i1 @_ZNK5ZXing6QRCode7Version7isMicroEv(ptr noundef nonnull align 8 dereferenceable(120) %0) #0 comdat align 2 {
  %2 = alloca ptr, align 8
  store ptr %0, ptr %2, align 8, !tbaa !33
  %3 = load ptr, ptr %2, align 8
  %4 = call noundef i32 @_ZNK5ZXing6QRCode7Version4typeEv(ptr noundef nonnull align 8 dereferenceable(120) %3)
  %5 = icmp eq i32 %4, 2
  ret i1 %5
}

; Function Attrs: mustprogress uwtable
define noundef i32 @_ZN5ZXing6QRCode19CodecModeBitsLengthERKNS0_7VersionE(ptr noundef nonnull align 8 dereferenceable(120) %0) #0 {
  %2 = alloca ptr, align 8
  store ptr %0, ptr %2, align 8, !tbaa !33
  %3 = load ptr, ptr %2, align 8, !tbaa !33
  %4 = call noundef zeroext i1 @_ZNK5ZXing6QRCode7Version7isMicroEv(ptr noundef nonnull align 8 dereferenceable(120) %3)
  br i1 %4, label %5, label %9

5:                                                ; preds = %1
  %6 = load ptr, ptr %2, align 8, !tbaa !33
  %7 = call noundef i32 @_ZNK5ZXing6QRCode7Version13versionNumberEv(ptr noundef nonnull align 8 dereferenceable(120) %6)
  %8 = sub nsw i32 %7, 1
  br label %14

9:                                                ; preds = %1
  %10 = load ptr, ptr %2, align 8, !tbaa !33
  %11 = call noundef zeroext i1 @_ZNK5ZXing6QRCode7Version6isRMQREv(ptr noundef nonnull align 8 dereferenceable(120) %10)
  %12 = zext i1 %11 to i32
  %13 = sub nsw i32 4, %12
  br label %14

14:                                               ; preds = %9, %5
  %15 = phi i32 [ %8, %5 ], [ %13, %9 ]
  ret i32 %15
}