; Function Attrs: mustprogress nofree norecurse nosync nounwind willreturn memory(argmem: read) uwtable
define noundef range(i32 -2147483648, 2147483647) i32 @_ZN5ZXing6QRCode19CodecModeBitsLengthERKNS0_7VersionE(ptr noundef nonnull readonly align 8 captures(none) dereferenceable(120) %0) local_unnamed_addr #5 {
  %2 = getelementptr inbounds nuw i8, ptr %0, i64 116
  %3 = load i32, ptr %2, align 4, !tbaa !33
  %4 = icmp eq i32 %3, 2
  %5 = load i32, ptr %0, align 8
  %6 = add nsw i32 %5, -1
  %7 = icmp eq i32 %3, 3
  %8 = select i1 %7, i32 3, i32 4
  %9 = select i1 %4, i32 %6, i32 %8
  ret i32 %9
}